((lp1
(lp2
S'0.601333'
p3
aS'0.496226'
p4
aS'0.072833'
p5
aS'0.723800'
p6
aS'0.054285'
p7
aS'0.170900'
p8
aS'0.549000'
p9
aS'0.458000'
p10
aa(lp11
S'0.640000'
p12
aS'0.650943'
p13
aS'0.171767'
p14
aS'0.059600'
p15
aS'0.178800'
p16
aS'0.456700'
p17
aS'0.599700'
p18
aS'0.404800'
p19
aa(lp20
S'1.000000'
p21
aS'0.634906'
p22
aS'0.164933'
p23
aS'0.064731'
p24
aS'0.334980'
p25
aS'0.724050'
p26
aS'0.687900'
p27
aS'0.331700'
p28
aa(lp29
S'0.467333'
p30
aS'0.481132'
p31
aS'0.100100'
p32
aS'0.158656'
p33
aS'0.440270'
p34
aS'0.852650'
p35
aS'0.519700'
p36
aS'0.484500'
p37
aa(lp38
S'0.695000'
p39
aS'0.578302'
p40
aS'0.256033'
p41
aS'0.041883'
p42
aS'0.386370'
p43
aS'0.885250'
p44
aS'0.560100'
p45
aS'0.445300'
p46
aa(lp47
S'0.616333'
p48
aS'0.500943'
p49
aS'0.185833'
p50
aS'0.108313'
p51
aS'0.341185'
p52
aS'0.747850'
p53
aS'0.501000'
p54
aS'0.502600'
p55
aa(lp56
S'0.797333'
p57
aS'0.511321'
p58
aS'0.074600'
p59
aS'0.128622'
p60
aS'0.434100'
p61
aS'1.000000'
p62
aS'0.537200'
p63
aS'0.469500'
p64
aa(lp65
S'0.692000'
p66
aS'0.521698'
p67
aS'0.226233'
p68
aS'0.042724'
p69
aS'0.926045'
p70
aS'1.000000'
p71
aS'0.532000'
p72
aS'0.470600'
p73
aa(lp74
S'0.494667'
p75
aS'0.484906'
p76
aS'0.095633'
p77
aS'0.067165'
p78
aS'0.292170'
p79
aS'0.598400'
p80
aS'0.522000'
p81
aS'0.484700'
p82
aa(lp83
S'0.751000'
p84
aS'0.535849'
p85
aS'0.300967'
p86
aS'0.297083'
p87
aS'0.378780'
p88
aS'0.960250'
p89
aS'0.524800'
p90
aS'0.478300'
p91
aa(lp92
S'0.605667'
p93
aS'0.486792'
p94
aS'0.090467'
p95
aS'0.358883'
p96
aS'0.645990'
p97
aS'0.951450'
p98
aS'0.518500'
p99
aS'0.486100'
p100
aa(lp101
S'0.730000'
p102
aS'0.610377'
p103
aS'0.271533'
p104
aS'0.158037'
p105
aS'0.237055'
p106
aS'0.845250'
p107
aS'0.575400'
p108
aS'0.428600'
p109
aa(lp110
S'0.722333'
p111
aS'0.541509'
p112
aS'0.232367'
p113
aS'0.180365'
p114
aS'0.284075'
p115
aS'0.839650'
p116
aS'0.545700'
p117
aS'0.457700'
p118
aa(lp119
S'0.869667'
p120
aS'0.491509'
p121
aS'0.100200'
p122
aS'0.261479'
p123
aS'0.333385'
p124
aS'0.595950'
p125
aS'0.489400'
p126
aS'0.514400'
p127
aa(lp128
S'0.530333'
p129
aS'0.469811'
p130
aS'0.072700'
p131
aS'0.163700'
p132
aS'0.147330'
p133
aS'0.326350'
p134
aS'0.492000'
p135
aS'0.511000'
p136
aa(lp137
S'0.701000'
p138
aS'0.495283'
p139
aS'0.103667'
p140
aS'0.094005'
p141
aS'0.606335'
p142
aS'1.000000'
p143
aS'0.500300'
p144
aS'0.505700'
p145
aa(lp146
S'0.712333'
p147
aS'0.522642'
p148
aS'0.236633'
p149
aS'0.059162'
p150
aS'0.266230'
p151
aS'0.648850'
p152
aS'0.544500'
p153
aS'0.459200'
p154
aa(lp155
S'0.599000'
p156
aS'0.664151'
p157
aS'0.113267'
p158
aS'0.076613'
p159
aS'0.281555'
p160
aS'0.771300'
p161
aS'0.643900'
p162
aS'0.365700'
p163
aa(lp164
S'0.795667'
p165
aS'0.640566'
p166
aS'0.141333'
p167
aS'0.108824'
p168
aS'0.228530'
p169
aS'0.602300'
p170
aS'0.611400'
p171
aS'0.399900'
p172
aa(lp173
S'0.674000'
p174
aS'0.506604'
p175
aS'0.166367'
p176
aS'0.493963'
p177
aS'0.333425'
p178
aS'0.819200'
p179
aS'0.519200'
p180
aS'0.483300'
p181
aa(lp182
S'0.416000'
p183
aS'0.489623'
p184
aS'0.041933'
p185
aS'0.201557'
p186
aS'0.211635'
p187
aS'0.446050'
p188
aS'0.575000'
p189
aS'0.429100'
p190
aa(lp191
S'0.538667'
p192
aS'0.467925'
p193
aS'0.082200'
p194
aS'0.170023'
p195
aS'0.510070'
p196
aS'0.673300'
p197
aS'0.491800'
p198
aS'0.509800'
p199
aa(lp200
S'0.519333'
p201
aS'0.557547'
p202
aS'0.237100'
p203
aS'0.059711'
p204
aS'0.219440'
p205
aS'0.596250'
p206
aS'0.548300'
p207
aS'0.456200'
p208
aa(lp209
S'0.677667'
p210
aS'0.549057'
p211
aS'0.146933'
p212
aS'0.057165'
p213
aS'0.180070'
p214
aS'0.434450'
p215
aS'0.572700'
p216
aS'0.434900'
p217
aa(lp218
S'0.373667'
p219
aS'0.506604'
p220
aS'0.069267'
p221
aS'0.063035'
p222
aS'0.212745'
p223
aS'0.576000'
p224
aS'0.578000'
p225
aS'0.423300'
p226
aa(lp227
S'0.815667'
p228
aS'0.544340'
p229
aS'0.225700'
p230
aS'0.045137'
p231
aS'0.054165'
p232
aS'0.203550'
p233
aS'0.540800'
p234
aS'0.464500'
p235
aa(lp236
S'0.830667'
p237
aS'0.480189'
p238
aS'0.082767'
p239
aS'0.015933'
p240
aS'0.009560'
p241
aS'0.045750'
p242
aS'0.488000'
p243
aS'0.515700'
p244
aa(lp245
S'0.783333'
p246
aS'0.451887'
p247
aS'0.019867'
p248
aS'0.029933'
p249
aS'0.006735'
p250
aS'0.036150'
p251
aS'0.634000'
p252
aS'0.377900'
p253
aa(lp254
S'0.639333'
p255
aS'0.504717'
p256
aS'0.100367'
p257
aS'0.196252'
p258
aS'0.264940'
p259
aS'0.582800'
p260
aS'0.511300'
p261
aS'0.490100'
p262
aa(lp263
S'0.466333'
p264
aS'0.495283'
p265
aS'0.119067'
p266
aS'0.061554'
p267
aS'0.060015'
p268
aS'0.229550'
p269
aS'0.563000'
p270
aS'0.461700'
p271
aa(lp272
S'0.975000'
p273
aS'0.511321'
p274
aS'0.132367'
p275
aS'0.884941'
p276
aS'0.530965'
p277
aS'1.000000'
p278
aS'0.525300'
p279
aS'0.482500'
p280
aa(lp281
S'0.684667'
p282
aS'0.460377'
p283
aS'0.233500'
p284
aS'0.019759'
p285
aS'0.019265'
p286
aS'0.075200'
p287
aS'0.458900'
p288
aS'0.543500'
p289
aa(lp290
S'0.463333'
p291
aS'0.568868'
p292
aS'0.053667'
p293
aS'0.037953'
p294
aS'0.048390'
p295
aS'0.168200'
p296
aS'0.625200'
p297
aS'0.384700'
p298
aa(lp299
S'1.000000'
p300
aS'0.429245'
p301
aS'0.013933'
p302
aS'0.132467'
p303
aS'0.029805'
p304
aS'0.101950'
p305
aS'0.560100'
p306
aS'0.455500'
p307
aa(lp308
S'0.856000'
p309
aS'0.466038'
p310
aS'0.037967'
p311
aS'0.011411'
p312
aS'0.024820'
p313
aS'0.104600'
p314
aS'0.495800'
p315
aS'0.507900'
p316
aa(lp317
S'0.579667'
p318
aS'0.567925'
p319
aS'0.071467'
p320
aS'0.048159'
p321
aS'0.093910'
p322
aS'0.343500'
p323
aS'0.579500'
p324
aS'0.428500'
p325
aa(lp326
S'0.383000'
p327
aS'0.496226'
p328
aS'0.146367'
p329
aS'0.075622'
p330
aS'0.034030'
p331
aS'0.129450'
p332
aS'0.549200'
p333
aS'0.458900'
p334
aa(lp335
S'0.549667'
p336
aS'0.478302'
p337
aS'0.061100'
p338
aS'0.383092'
p339
aS'0.747030'
p340
aS'1.000000'
p341
aS'0.525000'
p342
aS'0.477200'
p343
aa(lp344
S'0.561000'
p345
aS'0.496226'
p346
aS'0.606600'
p347
aS'0.159451'
p348
aS'0.251135'
p349
aS'0.588250'
p350
aS'0.541100'
p351
aS'0.459500'
p352
aa(lp353
S'0.644000'
p354
aS'0.514151'
p355
aS'0.277333'
p356
aS'0.079811'
p357
aS'0.107745'
p358
aS'0.299400'
p359
aS'0.507100'
p360
aS'0.500500'
p361
aa(lp362
S'0.911667'
p363
aS'0.533019'
p364
aS'0.037000'
p365
aS'0.016339'
p366
aS'0.014705'
p367
aS'0.071950'
p368
aS'0.543400'
p369
aS'0.461100'
p370
aa(lp371
S'0.667667'
p372
aS'0.470755'
p373
aS'0.069267'
p374
aS'0.063257'
p375
aS'0.237215'
p376
aS'0.488500'
p377
aS'0.506100'
p378
aS'0.498700'
p379
aa(lp380
S'0.936000'
p381
aS'0.477358'
p382
aS'0.037900'
p383
aS'0.021400'
p384
aS'0.014445'
p385
aS'0.055450'
p386
aS'0.532700'
p387
aS'0.468300'
p388
aa(lp389
S'0.558333'
p390
aS'0.517925'
p391
aS'0.958967'
p392
aS'0.437288'
p393
aS'0.819915'
p394
aS'1.000000'
p395
aS'0.495200'
p396
aS'0.507100'
p397
aa(lp398
S'0.539333'
p399
aS'0.508491'
p400
aS'0.142467'
p401
aS'0.118559'
p402
aS'0.435705'
p403
aS'0.850350'
p404
aS'0.531800'
p405
aS'0.469900'
p406
aa(lp407
S'0.499333'
p408
aS'0.488679'
p409
aS'0.054567'
p410
aS'0.220867'
p411
aS'0.132520'
p412
aS'0.321300'
p413
aS'0.549800'
p414
aS'0.452400'
p415
aa(lp416
S'0.652000'
p417
aS'0.466038'
p418
aS'0.029700'
p419
aS'0.035042'
p420
aS'0.078845'
p421
aS'0.201250'
p422
aS'0.460700'
p423
aS'0.543000'
p424
aa(lp425
S'0.569667'
p426
aS'0.486792'
p427
aS'0.076367'
p428
aS'0.352173'
p429
aS'0.132065'
p430
aS'0.289100'
p431
aS'0.515000'
p432
aS'0.487000'
p433
aa(lp434
S'0.480667'
p435
aS'0.474528'
p436
aS'0.078533'
p437
aS'0.369067'
p438
aS'0.110720'
p439
aS'0.271650'
p440
aS'0.501000'
p441
aS'0.502700'
p442
aa(lp443
S'0.664667'
p444
aS'0.473585'
p445
aS'0.079267'
p446
aS'0.137577'
p447
aS'0.175410'
p448
aS'0.355800'
p449
aS'0.479900'
p450
aS'0.523100'
p451
aa(lp452
S'0.708667'
p453
aS'0.487736'
p454
aS'0.163433'
p455
aS'0.176173'
p456
aS'0.132130'
p457
aS'0.348400'
p458
aS'0.494200'
p459
aS'0.509700'
p460
aa(lp461
S'0.677667'
p462
aS'0.551887'
p463
aS'0.150000'
p464
aS'0.249263'
p465
aS'0.635620'
p466
aS'1.000000'
p467
aS'0.594400'
p468
aS'0.409400'
p469
aa(lp470
S'0.516000'
p471
aS'0.485849'
p472
aS'0.107933'
p473
aS'0.553807'
p474
aS'0.373820'
p475
aS'0.715300'
p476
aS'0.503300'
p477
aS'0.499300'
p478
aa(lp479
S'0.482333'
p480
aS'0.509434'
p481
aS'0.141233'
p482
aS'0.211001'
p483
aS'0.791255'
p484
aS'1.000000'
p485
aS'0.544000'
p486
aS'0.459000'
p487
aa(lp488
S'0.785333'
p489
aS'0.491509'
p490
aS'0.127400'
p491
aS'0.044588'
p492
aS'0.093635'
p493
aS'0.253450'
p494
aS'0.493900'
p495
aS'0.508700'
p496
aa(lp497
S'0.643333'
p498
aS'0.488679'
p499
aS'0.078267'
p500
aS'0.457867'
p501
aS'0.137360'
p502
aS'0.315700'
p503
aS'0.522800'
p504
aS'0.478200'
p505
aa(lp506
S'0.789000'
p507
aS'0.469811'
p508
aS'0.097900'
p509
aS'0.084028'
p510
aS'0.315105'
p511
aS'0.456200'
p512
aS'0.462300'
p513
aS'0.545700'
p514
aa(lp515
S'0.660000'
p516
aS'0.551887'
p517
aS'0.265000'
p518
aS'0.027803'
p519
aS'0.127200'
p520
aS'0.446650'
p521
aS'0.547300'
p522
aS'0.457500'
p523
aa(lp524
S'0.519333'
p525
aS'0.497170'
p526
aS'0.067867'
p527
aS'0.399983'
p528
aS'0.119995'
p529
aS'0.303850'
p530
aS'0.530700'
p531
aS'0.472600'
p532
aa(lp533
S'0.722000'
p534
aS'0.593396'
p535
aS'0.385133'
p536
aS'0.064137'
p537
aS'0.485840'
p538
aS'1.000000'
p539
aS'0.566600'
p540
aS'0.447300'
p541
aa(lp542
S'0.597333'
p543
aS'0.491509'
p544
aS'0.090267'
p545
aS'0.170680'
p546
aS'0.192015'
p547
aS'0.437400'
p548
aS'0.512600'
p549
aS'0.490600'
p550
aa(lp551
S'0.572667'
p552
aS'0.483962'
p553
aS'0.097700'
p554
aS'0.119698'
p555
aS'0.170570'
p556
aS'0.367700'
p557
aS'0.493800'
p558
aS'0.510200'
p559
aa(lp560
S'0.593333'
p561
aS'0.485849'
p562
aS'0.068167'
p563
aS'0.161633'
p564
aS'0.193960'
p565
aS'0.438250'
p566
aS'0.514200'
p567
aS'0.490800'
p568
aa(lp569
S'0.549000'
p570
aS'0.483962'
p571
aS'0.083367'
p572
aS'0.192149'
p573
aS'0.187345'
p574
aS'0.393800'
p575
aS'0.520900'
p576
aS'0.485900'
p577
aa(lp578
S'0.520333'
p579
aS'0.490566'
p580
aS'0.084533'
p581
aS'0.201815'
p582
aS'0.196770'
p583
aS'0.440900'
p584
aS'0.515800'
p585
aS'0.486900'
p586
aa(lp587
S'0.509333'
p588
aS'0.473585'
p589
aS'0.102633'
p590
aS'0.213983'
p591
aS'0.192585'
p592
aS'0.382050'
p593
aS'0.499800'
p594
aS'0.502500'
p595
aa(lp596
S'0.534667'
p597
aS'0.488679'
p598
aS'0.096433'
p599
aS'0.188805'
p600
aS'0.594735'
p601
aS'0.946800'
p602
aS'0.512900'
p603
aS'0.491600'
p604
aa(lp605
S'0.695667'
p606
aS'0.502830'
p607
aS'0.124367'
p608
aS'0.311953'
p609
aS'0.327550'
p610
aS'0.705000'
p611
aS'0.526500'
p612
aS'0.478800'
p613
aa(lp614
S'0.650333'
p615
aS'0.513208'
p616
aS'0.110833'
p617
aS'0.220980'
p618
aS'0.331470'
p619
aS'0.632900'
p620
aS'0.527600'
p621
aS'0.474900'
p622
aa(lp623
S'0.629667'
p624
aS'0.475472'
p625
aS'0.082900'
p626
aS'0.163021'
p627
aS'0.195625'
p628
aS'0.365900'
p629
aS'0.506400'
p630
aS'0.499400'
p631
aa(lp632
S'0.587000'
p633
aS'0.500943'
p634
aS'0.130667'
p635
aS'0.164298'
p636
aS'0.184835'
p637
aS'0.419050'
p638
aS'0.498400'
p639
aS'0.504700'
p640
aa(lp641
S'0.438333'
p642
aS'0.504717'
p643
aS'0.109533'
p644
aS'0.268853'
p645
aS'0.302460'
p646
aS'0.640700'
p647
aS'0.544100'
p648
aS'0.461100'
p649
aa(lp650
S'0.896667'
p651
aS'0.521698'
p652
aS'0.452400'
p653
aS'0.305945'
p654
aS'1.000000'
p655
aS'1.000000'
p656
aS'0.494300'
p657
aS'0.512700'
p658
aa(lp659
S'0.601667'
p660
aS'0.495283'
p661
aS'0.139833'
p662
aS'0.077339'
p663
aS'0.585845'
p664
aS'0.841800'
p665
aS'0.507800'
p666
aS'0.498700'
p667
aa(lp668
S'0.387667'
p669
aS'0.484906'
p670
aS'0.234967'
p671
aS'0.277771'
p672
aS'0.187495'
p673
aS'0.362250'
p674
aS'0.503800'
p675
aS'0.500200'
p676
aa(lp677
S'0.536000'
p678
aS'0.596226'
p679
aS'0.070633'
p680
aS'0.045780'
p681
aS'0.068670'
p682
aS'0.267750'
p683
aS'0.577600'
p684
aS'0.431400'
p685
aa(lp686
S'0.628667'
p687
aS'0.569811'
p688
aS'0.071333'
p689
aS'0.043507'
p690
aS'0.058735'
p691
aS'0.223800'
p692
aS'0.545200'
p693
aS'0.466200'
p694
aa(lp695
S'0.606333'
p696
aS'0.554717'
p697
aS'0.126067'
p698
aS'0.098686'
p699
aS'0.051810'
p700
aS'0.171000'
p701
aS'0.564900'
p702
aS'0.437400'
p703
aa(lp704
S'1.000000'
p705
aS'0.422642'
p706
aS'0.614000'
p707
aS'0.100693'
p708
aS'0.037760'
p709
aS'0.091000'
p710
aS'0.346000'
p711
aS'0.656100'
p712
aa(lp713
S'0.740000'
p714
aS'0.653774'
p715
aS'0.084733'
p716
aS'0.059741'
p717
aS'0.277795'
p718
aS'0.723150'
p719
aS'0.620200'
p720
aS'0.392800'
p721
aa(lp722
S'0.965333'
p723
aS'0.652830'
p724
aS'0.134167'
p725
aS'0.011247'
p726
aS'0.075075'
p727
aS'0.187000'
p728
aS'0.567500'
p729
aS'0.437500'
p730
aa(lp731
S'0.675667'
p732
aS'0.518868'
p733
aS'0.173100'
p734
aS'0.079621'
p735
aS'0.358295'
p736
aS'0.832200'
p737
aS'0.568300'
p738
aS'0.439100'
p739
aa(lp740
S'0.487000'
p741
aS'0.590566'
p742
aS'0.130167'
p743
aS'0.176109'
p744
aS'1.000000'
p745
aS'1.000000'
p746
aS'0.630600'
p747
aS'0.378700'
p748
aa(lp749
S'0.590333'
p750
aS'0.509434'
p751
aS'0.180267'
p752
aS'0.130423'
p753
aS'0.283670'
p754
aS'0.711200'
p755
aS'0.520500'
p756
aS'0.487400'
p757
aa(lp758
S'0.613667'
p759
aS'0.528302'
p760
aS'0.144567'
p761
aS'0.062971'
p762
aS'0.127515'
p763
aS'0.393100'
p764
aS'0.537700'
p765
aS'0.468100'
p766
aa(lp767
S'0.824000'
p768
aS'0.633019'
p769
aS'0.048533'
p770
aS'0.072295'
p771
aS'0.075910'
p772
aS'0.249250'
p773
aS'0.620700'
p774
aS'0.405000'
p775
aa(lp776
S'0.602333'
p777
aS'0.631132'
p778
aS'0.118233'
p779
aS'0.042310'
p780
aS'0.174530'
p781
aS'0.439900'
p782
aS'0.605400'
p783
aS'0.408200'
p784
aa(lp785
S'0.610333'
p786
aS'0.614151'
p787
aS'0.120667'
p788
aS'0.077215'
p789
aS'0.735475'
p790
aS'1.000000'
p791
aS'0.585900'
p792
aS'0.420700'
p793
aa(lp794
S'0.608333'
p795
aS'0.503774'
p796
aS'0.094333'
p797
aS'0.282669'
p798
aS'0.572405'
p799
aS'1.000000'
p800
aS'0.536600'
p801
aS'0.469800'
p802
aa(lp803
S'0.518000'
p804
aS'0.482075'
p805
aS'0.116400'
p806
aS'0.182315'
p807
aS'0.451230'
p808
aS'0.788500'
p809
aS'0.526300'
p810
aS'0.475300'
p811
aa(lp812
S'0.607333'
p813
aS'0.520755'
p814
aS'0.159733'
p815
aS'0.164467'
p816
aS'0.431725'
p817
aS'1.000000'
p818
aS'0.533400'
p819
aS'0.478800'
p820
aa(lp821
S'0.559333'
p822
aS'0.472642'
p823
aS'0.090867'
p824
aS'0.219267'
p825
aS'0.328900'
p826
aS'0.552650'
p827
aS'0.505200'
p828
aS'0.496200'
p829
aa(lp830
S'0.466333'
p831
aS'0.490566'
p832
aS'0.176300'
p833
aS'0.126097'
p834
aS'0.274260'
p835
aS'0.645350'
p836
aS'0.524600'
p837
aS'0.477200'
p838
aa(lp839
S'1.000000'
p840
aS'0.485849'
p841
aS'0.051933'
p842
aS'0.034998'
p843
aS'0.398975'
p844
aS'0.654350'
p845
aS'0.507900'
p846
aS'0.497400'
p847
aa(lp848
S'0.496333'
p849
aS'0.451887'
p850
aS'0.062133'
p851
aS'0.418683'
p852
aS'0.125605'
p853
aS'0.237300'
p854
aS'0.471600'
p855
aS'0.529200'
p856
aa(lp857
S'0.628333'
p858
aS'0.509434'
p859
aS'0.146333'
p860
aS'0.149247'
p861
aS'0.078355'
p862
aS'0.226750'
p863
aS'0.531900'
p864
aS'0.470100'
p865
aa(lp866
S'0.468667'
p867
aS'0.490566'
p868
aS'0.092933'
p869
aS'0.166299'
p870
aS'0.386645'
p871
aS'0.702200'
p872
aS'0.529200'
p873
aS'0.473100'
p874
aa(lp875
S'0.535333'
p876
aS'0.449057'
p877
aS'0.044800'
p878
aS'0.358700'
p879
aS'0.107610'
p880
aS'0.226950'
p881
aS'0.477600'
p882
aS'0.523300'
p883
aa(lp884
S'0.602000'
p885
aS'0.483962'
p886
aS'0.063600'
p887
aS'0.221175'
p888
aS'0.132705'
p889
aS'0.307800'
p890
aS'0.511800'
p891
aS'0.489000'
p892
aa(lp893
S'0.527667'
p894
aS'0.474528'
p895
aS'0.064467'
p896
aS'0.212875'
p897
aS'0.127725'
p898
aS'0.295350'
p899
aS'0.504700'
p900
aS'0.498200'
p901
aa(lp902
S'0.596333'
p903
aS'0.460377'
p904
aS'0.057600'
p905
aS'0.212117'
p906
aS'0.127270'
p907
aS'0.256400'
p908
aS'0.475400'
p909
aS'0.525600'
p910
aa(lp911
S'0.543667'
p912
aS'0.467925'
p913
aS'0.062300'
p914
aS'0.213875'
p915
aS'0.128325'
p916
aS'0.261000'
p917
aS'0.484800'
p918
aS'0.516300'
p919
aa(lp920
S'0.569333'
p921
aS'0.462264'
p922
aS'0.067667'
p923
aS'0.219192'
p924
aS'0.131515'
p925
aS'0.267750'
p926
aS'0.476300'
p927
aS'0.524400'
p928
aa(lp929
S'0.550667'
p930
aS'0.480189'
p931
aS'0.087133'
p932
aS'0.168539'
p933
aS'0.404495'
p934
aS'0.721550'
p935
aS'0.520300'
p936
aS'0.482800'
p937
aa(lp938
S'0.681333'
p939
aS'0.482075'
p940
aS'0.121467'
p941
aS'0.162255'
p942
aS'0.584120'
p943
aS'0.960650'
p944
aS'0.491100'
p945
aS'0.511100'
p946
aa(lp947
S'0.446667'
p948
aS'0.484906'
p949
aS'0.595333'
p950
aS'0.122467'
p951
aS'0.128590'
p952
aS'0.393450'
p953
aS'0.575600'
p954
aS'0.450500'
p955
aa(lp956
S'0.691333'
p957
aS'0.485849'
p958
aS'0.059400'
p959
aS'0.062336'
p960
aS'0.126230'
p961
aS'0.333850'
p962
aS'0.531600'
p963
aS'0.476400'
p964
aa(lp965
S'0.501333'
p966
aS'0.484906'
p967
aS'0.108533'
p968
aS'0.410267'
p969
aS'0.123080'
p970
aS'0.311050'
p971
aS'0.505400'
p972
aS'0.495700'
p973
aa(lp974
S'0.668000'
p975
aS'0.505660'
p976
aS'0.108733'
p977
aS'0.122647'
p978
aS'0.091985'
p979
aS'0.282600'
p980
aS'0.508000'
p981
aS'0.495100'
p982
aa(lp983
S'0.522000'
p984
aS'0.480189'
p985
aS'0.088300'
p986
aS'0.737200'
p987
aS'0.221160'
p988
aS'0.308000'
p989
aS'0.501600'
p990
aS'0.500400'
p991
aa(lp992
S'0.529333'
p993
aS'0.508491'
p994
aS'0.087567'
p995
aS'0.353360'
p996
aS'0.132510'
p997
aS'0.322100'
p998
aS'0.536700'
p999
aS'0.465100'
p1000
aa(lp1001
S'0.799333'
p1002
aS'0.495283'
p1003
aS'0.103800'
p1004
aS'0.119370'
p1005
aS'0.196960'
p1006
aS'0.417500'
p1007
aS'0.521600'
p1008
aS'0.479100'
p1009
aa(lp1010
S'0.860667'
p1011
aS'0.509434'
p1012
aS'0.116133'
p1013
aS'0.104757'
p1014
aS'0.652115'
p1015
aS'1.000000'
p1016
aS'0.522700'
p1017
aS'0.482800'
p1018
aa(lp1019
S'0.769667'
p1020
aS'0.475472'
p1021
aS'0.099900'
p1022
aS'0.184027'
p1023
aS'0.400260'
p1024
aS'0.752600'
p1025
aS'0.514800'
p1026
aS'0.494600'
p1027
aa(lp1028
S'0.543000'
p1029
aS'0.512264'
p1030
aS'0.088933'
p1031
aS'0.453729'
p1032
aS'0.578505'
p1033
aS'1.000000'
p1034
aS'0.551600'
p1035
aS'0.455500'
p1036
aa(lp1037
S'0.987333'
p1038
aS'0.519811'
p1039
aS'0.134367'
p1040
aS'0.056536'
p1041
aS'0.110245'
p1042
aS'0.356850'
p1043
aS'0.510000'
p1044
aS'0.492000'
p1045
aa(lp1046
S'0.630333'
p1047
aS'0.481132'
p1048
aS'0.126800'
p1049
aS'0.196339'
p1050
aS'0.500665'
p1051
aS'0.849800'
p1052
aS'0.511200'
p1053
aS'0.496200'
p1054
aa(lp1055
S'0.595333'
p1056
aS'0.488679'
p1057
aS'0.358533'
p1058
aS'0.300333'
p1059
aS'0.382925'
p1060
aS'0.777550'
p1061
aS'0.508700'
p1062
aS'0.493600'
p1063
aa(lp1064
S'0.731000'
p1065
aS'0.550000'
p1066
aS'0.201233'
p1067
aS'0.195857'
p1068
aS'0.396610'
p1069
aS'0.986650'
p1070
aS'0.551100'
p1071
aS'0.452300'
p1072
aa(lp1073
S'0.532000'
p1074
aS'0.492453'
p1075
aS'0.074233'
p1076
aS'0.070903'
p1077
aS'0.462645'
p1078
aS'0.842150'
p1079
aS'0.533000'
p1080
aS'0.468200'
p1081
aa(lp1082
S'0.459333'
p1083
aS'0.626415'
p1084
aS'0.127600'
p1085
aS'0.021640'
p1086
aS'0.077905'
p1087
aS'0.211900'
p1088
aS'0.676500'
p1089
aS'0.338600'
p1090
aa(lp1091
S'0.384000'
p1092
aS'0.466981'
p1093
aS'0.084200'
p1094
aS'0.292817'
p1095
aS'0.175690'
p1096
aS'0.394000'
p1097
aS'0.531600'
p1098
aS'0.474200'
p1099
aa(lp1100
S'0.642333'
p1101
aS'0.520755'
p1102
aS'0.038100'
p1103
aS'0.005559'
p1104
aS'0.152610'
p1105
aS'0.230800'
p1106
aS'0.663500'
p1107
aS'0.388500'
p1108
aa(lp1109
S'0.468000'
p1110
aS'0.530189'
p1111
aS'0.272167'
p1112
aS'0.028676'
p1113
aS'0.296800'
p1114
aS'0.819750'
p1115
aS'0.546200'
p1116
aS'0.458900'
p1117
aa(lp1118
S'0.948000'
p1119
aS'0.492453'
p1120
aS'0.216767'
p1121
aS'0.450300'
p1122
aS'0.270180'
p1123
aS'0.569250'
p1124
aS'0.465400'
p1125
aS'0.541500'
p1126
aa(lp1127
S'0.672667'
p1128
aS'0.522642'
p1129
aS'0.194733'
p1130
aS'0.158503'
p1131
aS'0.784590'
p1132
aS'1.000000'
p1133
aS'0.548100'
p1134
aS'0.456700'
p1135
aa(lp1136
S'0.683667'
p1137
aS'0.502830'
p1138
aS'0.185000'
p1139
aS'0.108718'
p1140
aS'0.212000'
p1141
aS'0.562650'
p1142
aS'0.485600'
p1143
aS'0.516700'
p1144
aa(lp1145
S'0.562000'
p1146
aS'0.482075'
p1147
aS'0.083667'
p1148
aS'0.094019'
p1149
aS'0.119875'
p1150
aS'0.269250'
p1151
aS'0.510700'
p1152
aS'0.489500'
p1153
aa(lp1154
S'0.737667'
p1155
aS'0.505660'
p1156
aS'0.105533'
p1157
aS'0.181383'
p1158
aS'0.367300'
p1159
aS'0.621150'
p1160
aS'0.502800'
p1161
aS'0.498500'
p1162
aa(lp1163
S'0.449667'
p1164
aS'0.491509'
p1165
aS'0.162033'
p1166
aS'0.396375'
p1167
aS'0.386465'
p1168
aS'0.632600'
p1169
aS'0.507700'
p1170
aS'0.492700'
p1171
aa(lp1172
S'0.610667'
p1173
aS'0.487736'
p1174
aS'0.090300'
p1175
aS'0.281148'
p1176
aS'0.379550'
p1177
aS'0.620750'
p1178
aS'0.501000'
p1179
aS'0.504500'
p1180
aa(lp1181
S'0.546000'
p1182
aS'0.610377'
p1183
aS'0.157333'
p1184
aS'0.117305'
p1185
aS'0.571865'
p1186
aS'1.000000'
p1187
aS'0.607000'
p1188
aS'0.400800'
p1189
aa(lp1190
S'0.539667'
p1191
aS'0.499057'
p1192
aS'0.093400'
p1193
aS'0.245938'
p1194
aS'0.276680'
p1195
aS'0.506900'
p1196
aS'0.522900'
p1197
aS'0.480300'
p1198
aa(lp1199
S'0.657333'
p1200
aS'0.497170'
p1201
aS'0.081133'
p1202
aS'0.149384'
p1203
aS'0.190465'
p1204
aS'0.469250'
p1205
aS'0.528400'
p1206
aS'0.478400'
p1207
aa(lp1208
S'0.492333'
p1209
aS'0.489623'
p1210
aS'0.090833'
p1211
aS'0.195764'
p1212
aS'0.190870'
p1213
aS'0.448400'
p1214
aS'0.544500'
p1215
aS'0.458600'
p1216
aa(lp1217
S'0.609667'
p1218
aS'0.498113'
p1219
aS'0.086233'
p1220
aS'0.157454'
p1221
aS'0.188945'
p1222
aS'0.424000'
p1223
aS'0.507200'
p1224
aS'0.494900'
p1225
aa(lp1226
S'0.589667'
p1227
aS'0.485849'
p1228
aS'0.096900'
p1229
aS'0.145945'
p1230
aS'0.394050'
p1231
aS'0.649000'
p1232
aS'0.504700'
p1233
aS'0.497600'
p1234
aa(lp1235
S'0.567667'
p1236
aS'0.485849'
p1237
aS'0.083067'
p1238
aS'0.163254'
p1239
aS'0.195905'
p1240
aS'0.400450'
p1241
aS'0.505400'
p1242
aS'0.498400'
p1243
aa(lp1244
S'0.462667'
p1245
aS'0.491509'
p1246
aS'0.100533'
p1247
aS'0.195185'
p1248
aS'0.190305'
p1249
aS'0.418300'
p1250
aS'0.518600'
p1251
aS'0.484400'
p1252
aa(lp1253
S'0.536000'
p1254
aS'0.567925'
p1255
aS'0.161233'
p1256
aS'0.055361'
p1257
aS'0.049825'
p1258
aS'0.168450'
p1259
aS'0.594100'
p1260
aS'0.414200'
p1261
aa(lp1262
S'0.676000'
p1263
aS'0.512264'
p1264
aS'0.199600'
p1265
aS'0.301137'
p1266
aS'0.361365'
p1267
aS'0.806450'
p1268
aS'0.528900'
p1269
aS'0.473600'
p1270
aa(lp1271
S'0.446667'
p1272
aS'0.514151'
p1273
aS'0.110167'
p1274
aS'0.148775'
p1275
aS'0.212005'
p1276
aS'0.605600'
p1277
aS'0.549800'
p1278
aS'0.451600'
p1279
aa(lp1280
S'0.388333'
p1281
aS'0.521698'
p1282
aS'0.197767'
p1283
aS'0.007911'
p1284
aS'0.001780'
p1285
aS'0.009350'
p1286
aS'0.648900'
p1287
aS'0.365200'
p1288
aa(lp1289
S'0.669667'
p1290
aS'0.478302'
p1291
aS'0.082233'
p1292
aS'0.161104'
p1293
aS'0.193325'
p1294
aS'0.390350'
p1295
aS'0.475800'
p1296
aS'0.525400'
p1297
aa(lp1298
S'0.586667'
p1299
aS'0.481132'
p1300
aS'0.065567'
p1301
aS'0.141604'
p1302
aS'0.191165'
p1303
aS'0.416750'
p1304
aS'0.503100'
p1305
aS'0.498300'
p1306
aa(lp1307
S'0.483333'
p1308
aS'0.482075'
p1309
aS'0.082033'
p1310
aS'0.099580'
p1311
aS'0.246460'
p1312
aS'0.559550'
p1313
aS'0.540000'
p1314
aS'0.461700'
p1315
aa(lp1316
S'0.713333'
p1317
aS'0.580189'
p1318
aS'0.055833'
p1319
aS'0.016627'
p1320
aS'0.207000'
p1321
aS'0.443750'
p1322
aS'0.603700'
p1323
aS'0.431800'
p1324
aa(lp1325
S'0.854667'
p1326
aS'0.519811'
p1327
aS'0.160533'
p1328
aS'0.160721'
p1329
aS'0.192865'
p1330
aS'0.407900'
p1331
aS'0.519800'
p1332
aS'0.485800'
p1333
aa(lp1334
S'0.519667'
p1335
aS'0.518868'
p1336
aS'0.188067'
p1337
aS'0.034188'
p1338
aS'0.115385'
p1339
aS'0.366000'
p1340
aS'0.533600'
p1341
aS'0.477900'
p1342
aa(lp1343
S'0.675000'
p1344
aS'0.423585'
p1345
aS'0.131733'
p1346
aS'0.023425'
p1347
aS'0.080815'
p1348
aS'0.221850'
p1349
aS'0.722200'
p1350
aS'0.286500'
p1351
aa(lp1352
S'0.758333'
p1353
aS'0.536792'
p1354
aS'0.183800'
p1355
aS'0.080617'
p1356
aS'0.169295'
p1357
aS'0.583200'
p1358
aS'0.538300'
p1359
aS'0.466300'
p1360
aa(lp1361
S'1.000000'
p1362
aS'0.581132'
p1363
aS'0.380233'
p1364
aS'0.129909'
p1365
aS'0.350755'
p1366
aS'0.736150'
p1367
aS'0.539400'
p1368
aS'0.467700'
p1369
aa(lp1370
S'0.590667'
p1371
aS'0.627358'
p1372
aS'0.163667'
p1373
aS'0.112624'
p1374
aS'0.371660'
p1375
aS'0.787800'
p1376
aS'0.612200'
p1377
aS'0.392600'
p1378
aa(lp1379
S'0.852667'
p1380
aS'0.583019'
p1381
aS'0.086900'
p1382
aS'0.142883'
p1383
aS'0.267905'
p1384
aS'0.568000'
p1385
aS'0.565200'
p1386
aS'0.451300'
p1387
aa(lp1388
S'0.531667'
p1389
aS'0.478302'
p1390
aS'0.075067'
p1391
aS'0.308305'
p1392
aS'0.277475'
p1393
aS'0.526150'
p1394
aS'0.502500'
p1395
aS'0.497900'
p1396
aa(lp1397
S'0.501667'
p1398
aS'0.501887'
p1399
aS'0.112133'
p1400
aS'0.199241'
p1401
aS'0.268975'
p1402
aS'0.573450'
p1403
aS'0.528700'
p1404
aS'0.477900'
p1405
aa(lp1406
S'0.508333'
p1407
aS'0.500943'
p1408
aS'0.068067'
p1409
aS'0.054377'
p1410
aS'0.130505'
p1411
aS'0.318650'
p1412
aS'0.567800'
p1413
aS'0.440600'
p1414
aa(lp1415
S'1.000000'
p1416
aS'0.533962'
p1417
aS'0.247867'
p1418
aS'0.120059'
p1419
aS'1.000000'
p1420
aS'1.000000'
p1421
aS'0.464900'
p1422
aS'0.536600'
p1423
aa(lp1424
S'0.570000'
p1425
aS'0.488679'
p1426
aS'0.320067'
p1427
aS'0.061371'
p1428
aS'0.211730'
p1429
aS'0.342450'
p1430
aS'0.431000'
p1431
aS'0.570700'
p1432
aa(lp1433
S'0.467000'
p1434
aS'0.539623'
p1435
aS'0.023467'
p1436
aS'0.008059'
p1437
aS'0.083405'
p1438
aS'0.175450'
p1439
aS'0.690700'
p1440
aS'0.332300'
p1441
aa(lp1442
S'0.615333'
p1443
aS'0.488679'
p1444
aS'0.094167'
p1445
aS'0.177295'
p1446
aS'0.412210'
p1447
aS'0.690500'
p1448
aS'0.509300'
p1449
aS'0.494400'
p1450
aa(lp1451
S'0.585000'
p1452
aS'0.502830'
p1453
aS'0.071933'
p1454
aS'0.032969'
p1455
aS'0.286825'
p1456
aS'0.657900'
p1457
aS'0.535700'
p1458
aS'0.465500'
p1459
aa(lp1460
S'0.812333'
p1461
aS'0.548113'
p1462
aS'0.195200'
p1463
aS'0.191130'
p1464
aS'0.315365'
p1465
aS'0.568350'
p1466
aS'0.544800'
p1467
aS'0.460700'
p1468
aa(lp1469
S'0.354667'
p1470
aS'0.503774'
p1471
aS'0.895533'
p1472
aS'0.077857'
p1473
aS'0.286125'
p1474
aS'0.605000'
p1475
aS'0.540700'
p1476
aS'0.459900'
p1477
aa(lp1478
S'0.912000'
p1479
aS'0.519811'
p1480
aS'0.042233'
p1481
aS'0.129200'
p1482
aS'0.009690'
p1483
aS'0.049200'
p1484
aS'0.588200'
p1485
aS'0.428300'
p1486
aa(lp1487
S'0.423000'
p1488
aS'0.494340'
p1489
aS'0.115433'
p1490
aS'0.133067'
p1491
aS'0.279440'
p1492
aS'0.588100'
p1493
aS'0.532600'
p1494
aS'0.473000'
p1495
aa(lp1496
S'0.689667'
p1497
aS'0.573585'
p1498
aS'0.240400'
p1499
aS'0.098835'
p1500
aS'0.200140'
p1501
aS'0.620300'
p1502
aS'0.575500'
p1503
aS'0.430200'
p1504
aa(lp1505
S'0.875667'
p1506
aS'0.534906'
p1507
aS'0.333767'
p1508
aS'0.184234'
p1509
aS'0.483615'
p1510
aS'1.000000'
p1511
aS'0.525300'
p1512
aS'0.477200'
p1513
aa(lp1514
S'0.705333'
p1515
aS'0.541509'
p1516
aS'0.136900'
p1517
aS'0.054983'
p1518
aS'0.098970'
p1519
aS'0.344300'
p1520
aS'0.539800'
p1521
aS'0.466400'
p1522
aa(lp1523
S'0.981000'
p1524
aS'0.611321'
p1525
aS'0.052533'
p1526
aS'0.016530'
p1527
aS'0.050830'
p1528
aS'0.128250'
p1529
aS'0.615600'
p1530
aS'0.412200'
p1531
aa(lp1532
S'0.837000'
p1533
aS'0.514151'
p1534
aS'0.076933'
p1535
aS'0.147737'
p1536
aS'0.387810'
p1537
aS'0.882200'
p1538
aS'0.544400'
p1539
aS'0.458600'
p1540
aa(lp1541
S'0.833000'
p1542
aS'0.492453'
p1543
aS'0.056967'
p1544
aS'1.000000'
p1545
aS'0.878875'
p1546
aS'1.000000'
p1547
aS'0.600100'
p1548
aS'0.459900'
p1549
aa(lp1550
S'0.544667'
p1551
aS'0.483019'
p1552
aS'0.098800'
p1553
aS'0.150160'
p1554
aS'0.056310'
p1555
aS'0.179500'
p1556
aS'0.529500'
p1557
aS'0.474500'
p1558
aa(lp1559
S'0.472667'
p1560
aS'0.482075'
p1561
aS'0.084867'
p1562
aS'0.142467'
p1563
aS'0.854805'
p1564
aS'1.000000'
p1565
aS'0.526100'
p1566
aS'0.482000'
p1567
aa(lp1568
S'0.545333'
p1569
aS'0.488679'
p1570
aS'0.076567'
p1571
aS'0.210307'
p1572
aS'0.599375'
p1573
aS'0.966050'
p1574
aS'0.526500'
p1575
aS'0.476500'
p1576
aa(lp1577
S'0.591333'
p1578
aS'0.476415'
p1579
aS'0.123533'
p1580
aS'0.221767'
p1581
aS'0.199590'
p1582
aS'0.386350'
p1583
aS'0.478800'
p1584
aS'0.523600'
p1585
aa(lp1586
S'0.862000'
p1587
aS'0.533019'
p1588
aS'0.080233'
p1589
aS'0.113927'
p1590
aS'0.170890'
p1591
aS'0.484800'
p1592
aS'0.548800'
p1593
aS'0.461500'
p1594
aa(lp1595
S'0.685667'
p1596
aS'0.580189'
p1597
aS'0.161300'
p1598
aS'0.026780'
p1599
aS'0.126535'
p1600
aS'0.374150'
p1601
aS'0.616900'
p1602
aS'0.392500'
p1603
aa(lp1604
S'0.405333'
p1605
aS'0.515094'
p1606
aS'0.421433'
p1607
aS'0.019667'
p1608
aS'0.004425'
p1609
aS'0.026800'
p1610
aS'0.524300'
p1611
aS'0.479100'
p1612
aa(lp1613
S'0.548667'
p1614
aS'0.472642'
p1615
aS'0.112900'
p1616
aS'0.012784'
p1617
aS'0.226275'
p1618
aS'0.557050'
p1619
aS'0.549600'
p1620
aS'0.469700'
p1621
aa(lp1622
S'0.676000'
p1623
aS'0.558491'
p1624
aS'0.112533'
p1625
aS'0.044200'
p1626
aS'0.036465'
p1627
aS'0.159800'
p1628
aS'0.561600'
p1629
aS'0.444800'
p1630
aa(lp1631
S'0.589333'
p1632
aS'0.484906'
p1633
aS'0.106533'
p1634
aS'0.091049'
p1635
aS'0.204860'
p1636
aS'0.458900'
p1637
aS'0.494500'
p1638
aS'0.508400'
p1639
aa(lp1640
S'0.441667'
p1641
aS'0.489623'
p1642
aS'0.095767'
p1643
aS'0.047504'
p1644
aS'0.089070'
p1645
aS'0.261150'
p1646
aS'0.507600'
p1647
aS'0.497400'
p1648
aa(lp1649
S'0.498667'
p1650
aS'0.498113'
p1651
aS'0.120767'
p1652
aS'0.087608'
p1653
aS'0.269395'
p1654
aS'0.571400'
p1655
aS'0.504900'
p1656
aS'0.496100'
p1657
aa(lp1658
S'0.619667'
p1659
aS'0.480189'
p1660
aS'0.127100'
p1661
aS'0.321922'
p1662
aS'0.555315'
p1663
aS'0.927600'
p1664
aS'0.502700'
p1665
aS'0.497900'
p1666
aa(lp1667
S'0.640000'
p1668
aS'0.552830'
p1669
aS'0.227900'
p1670
aS'0.037309'
p1671
aS'0.195875'
p1672
aS'0.578550'
p1673
aS'0.549100'
p1674
aS'0.454000'
p1675
aa(lp1676
S'4'
aS'7'
aS'7'
aS'2'
aS'5'
aS'1'
aS'1'
aS'1'
aS'2'
aS'9'
aS'1'
aS'9'
aS'3'
aS'1'
aS'1'
aS'1'
aS'4'
aS'6'
aS'5'
aS'1'
aS'1'
aS'2'
aS'7'
aS'4'
aS'1'
aS'5'
aS'1'
aS'8'
aS'1'
aS'5'
aS'9'
aS'1'
aS'4'
aS'1'
aS'4'
aS'1'
aS'1'
aS'1'
aS'1'
aS'9'
aS'1'
aS'2'
aS'2'
aS'1'
aS'1'
aS'1'
aS'2'
aS'1'
aS'1'
aS'1'
aS'1'
aS'9'
aS'1'
aS'1'
aS'2'
aS'1'
aS'1'
aS'9'
aS'1'
aS'5'
aS'1'
aS'1'
aS'1'
aS'1'
aS'1'
aS'1'
aS'1'
aS'1'
aS'1'
aS'1'
aS'1'
aS'1'
aS'1'
aS'1'
aS'9'
aS'1'
aS'1'
aS'7'
aS'1'
aS'5'
aS'7'
aS'9'
aS'9'
aS'1'
aS'9'
aS'4'
aS'7'
aS'5'
aS'1'
aS'1'
aS'9'
aS'1'
aS'1'
aS'1'
aS'1'
aS'1'
aS'2'
aS'1'
aS'1'
aS'1'
aS'1'
aS'1'
aS'1'
aS'1'
aS'1'
aS'1'
aS'1'
aS'1'
aS'1'
aS'1'
aS'1'
aS'1'
aS'1'
aS'1'
aS'1'
aS'1'
aS'1'
aS'1'
aS'9'
aS'1'
aS'7'
aS'1'
aS'4'
aS'3'
aS'2'
aS'1'
aS'1'
aS'2'
aS'1'
aS'1'
aS'1'
aS'9'
aS'1'
aS'1'
aS'1'
aS'1'
aS'1'
aS'1'
aS'1'
aS'9'
aS'1'
aS'1'
aS'1'
aS'1'
aS'1'
aS'1'
aS'6'
aS'9'
aS'1'
aS'1'
aS'1'
aS'2'
aS'5'
aS'7'
aS'1'
aS'1'
aS'2'
aS'5'
aS'4'
aS'4'
aS'1'
aS'1'
aS'9'
aS'1'
aS'1'
aS'2'
aS'9'
aS'9'
aS'7'
aS'7'
aS'1'
aS'1'
aS'1'
aS'1'
aS'1'
aS'1'
aS'1'
aS'6'
aS'1'
aS'1'
aS'2'
aS'1'
aS'1'
aS'1'
aS'1'
aS'4'
atp1677
.